target datalayout = "e-m:e-p270:32:32-p271:32:32-p272:64:64-i64:64-i128:128-f80:128-n8:16:32:64-S128"
target triple = "x86_64-pc-linux-gnu"

%struct.ec_privatekey_st = type { i32, ptr, ptr, ptr }
%struct.ec_key_st = type { ptr, ptr, i32, ptr, ptr, ptr, i32, i32, %struct.CRYPTO_REF_COUNT, i32, %struct.crypto_ex_data_st, ptr, ptr, i64 }
%struct.CRYPTO_REF_COUNT = type { i32 }
%struct.crypto_ex_data_st = type { ptr, ptr }

@.str.2 = private unnamed_addr constant [31 x i8] c"../openssl/crypto/ec/ec_asn1.c\00", align 1
@__func__.i2d_ECPrivateKey = private unnamed_addr constant [17 x i8] c"i2d_ECPrivateKey\00", align 1
@EC_PRIVATEKEY_it.local_it = internal constant { i8, [7 x i8], i64, ptr, i64, ptr, i64, ptr } { i8 1, [7 x i8] zeroinitializer, i64 16, ptr @EC_PRIVATEKEY_seq_tt, i64 4, ptr null, i64 32, ptr @.str.31 }, align 8

; Function Attrs: nounwind uwtable
define internal ptr @EC_PRIVATEKEY_it() #0 {
  ret ptr @EC_PRIVATEKEY_it.local_it
}

; Function Attrs: nounwind uwtable
define void @EC_PRIVATEKEY_free(ptr noundef %0) #0 {
  %2 = alloca ptr, align 8
  store ptr %0, ptr %2, align 8, !tbaa !22
  %3 = load ptr, ptr %2, align 8, !tbaa !22
  %4 = call ptr @EC_PRIVATEKEY_it()
  call void @ASN1_item_free(ptr noundef %3, ptr noundef %4)
  ret void
}

; Function Attrs: nounwind uwtable
define i32 @i2d_EC_PRIVATEKEY(ptr noundef %0, ptr noundef %1) #0 {
  %3 = alloca ptr, align 8
  %4 = alloca ptr, align 8
  store ptr %0, ptr %3, align 8, !tbaa !22
  store ptr %1, ptr %4, align 8, !tbaa !14
  %5 = load ptr, ptr %3, align 8, !tbaa !22
  %6 = load ptr, ptr %4, align 8, !tbaa !14
  %7 = call ptr @EC_PRIVATEKEY_it()
  %8 = call i32 @ASN1_item_i2d(ptr noundef %5, ptr noundef %6, ptr noundef %7)
  ret i32 %8
}

; Function Attrs: nounwind uwtable
define ptr @EC_PRIVATEKEY_new() #0 {
  %1 = call ptr @EC_PRIVATEKEY_it()
  %2 = call ptr @ASN1_item_new(ptr noundef %1)
  ret ptr %2
}

; Function Attrs: nounwind uwtable
define i32 @i2d_ECPrivateKey(ptr noundef %0, ptr noundef %1) #0 {
  %3 = alloca ptr, align 8
  %4 = alloca ptr, align 8
  %5 = alloca i32, align 4
  %6 = alloca i32, align 4
  %7 = alloca ptr, align 8
  %8 = alloca ptr, align 8
  %9 = alloca i64, align 8
  %10 = alloca i64, align 8
  %11 = alloca ptr, align 8
  store ptr %0, ptr %3, align 8, !tbaa !81
  store ptr %1, ptr %4, align 8, !tbaa !14
  call void @llvm.lifetime.start.p0(i64 4, ptr %5) #4
  store i32 0, ptr %5, align 4, !tbaa !38
  call void @llvm.lifetime.start.p0(i64 4, ptr %6) #4
  store i32 0, ptr %6, align 4, !tbaa !38
  call void @llvm.lifetime.start.p0(i64 8, ptr %7) #4
  store ptr null, ptr %7, align 8, !tbaa !26
  call void @llvm.lifetime.start.p0(i64 8, ptr %8) #4
  store ptr null, ptr %8, align 8, !tbaa !26
  call void @llvm.lifetime.start.p0(i64 8, ptr %9) #4
  store i64 0, ptr %9, align 8, !tbaa !16
  call void @llvm.lifetime.start.p0(i64 8, ptr %10) #4
  store i64 0, ptr %10, align 8, !tbaa !16
  call void @llvm.lifetime.start.p0(i64 8, ptr %11) #4
  store ptr null, ptr %11, align 8, !tbaa !22
  %12 = load ptr, ptr %3, align 8, !tbaa !81
  %13 = icmp eq ptr %12, null
  br i1 %13, label %30, label %14

14:                                               ; preds = %2
  %15 = load ptr, ptr %3, align 8, !tbaa !81
  %16 = getelementptr inbounds nuw %struct.ec_key_st, ptr %15, i32 0, i32 3
  %17 = load ptr, ptr %16, align 8, !tbaa !85
  %18 = icmp eq ptr %17, null
  br i1 %18, label %30, label %19

19:                                               ; preds = %14
  %20 = load ptr, ptr %3, align 8, !tbaa !81
  %21 = getelementptr inbounds nuw %struct.ec_key_st, ptr %20, i32 0, i32 6
  %22 = load i32, ptr %21, align 8, !tbaa !100
  %23 = and i32 %22, 2
  %24 = icmp ne i32 %23, 0
  br i1 %24, label %31, label %25

25:                                               ; preds = %19
  %26 = load ptr, ptr %3, align 8, !tbaa !81
  %27 = getelementptr inbounds nuw %struct.ec_key_st, ptr %26, i32 0, i32 4
  %28 = load ptr, ptr %27, align 8, !tbaa !95
  %29 = icmp eq ptr %28, null
  br i1 %29, label %30, label %31

30:                                               ; preds = %25, %14, %2
  call void @ERR_new()
  call void @ERR_set_debug(ptr noundef @.str.2, i32 noundef 1027, ptr noundef @__func__.i2d_ECPrivateKey)
  call void (i32, i32, ptr, ...) @ERR_set_error(i32 noundef 16, i32 noundef 786690, ptr noundef null)
  br label %112

31:                                               ; preds = %25, %19
  %32 = call ptr @EC_PRIVATEKEY_new()
  store ptr %32, ptr %11, align 8, !tbaa !22
  %33 = icmp eq ptr %32, null
  br i1 %33, label %34, label %35

34:                                               ; preds = %31
  call void @ERR_new()
  call void @ERR_set_debug(ptr noundef @.str.2, i32 noundef 1032, ptr noundef @__func__.i2d_ECPrivateKey)
  call void (i32, i32, ptr, ...) @ERR_set_error(i32 noundef 16, i32 noundef 524304, ptr noundef null)
  br label %112

35:                                               ; preds = %31
  %36 = load ptr, ptr %3, align 8, !tbaa !81
  %37 = getelementptr inbounds nuw %struct.ec_key_st, ptr %36, i32 0, i32 2
  %38 = load i32, ptr %37, align 8, !tbaa !93
  %39 = load ptr, ptr %11, align 8, !tbaa !22
  %40 = getelementptr inbounds nuw %struct.ec_privatekey_st, ptr %39, i32 0, i32 0
  store i32 %38, ptr %40, align 8, !tbaa !92
  %41 = load ptr, ptr %3, align 8, !tbaa !81
  %42 = call i64 @EC_KEY_priv2buf(ptr noundef %41, ptr noundef %7)
  store i64 %42, ptr %9, align 8, !tbaa !16
  %43 = load i64, ptr %9, align 8, !tbaa !16
  %44 = icmp eq i64 %43, 0
  br i1 %44, label %45, label %46

45:                                               ; preds = %35
  call void @ERR_new()
  call void @ERR_set_debug(ptr noundef @.str.2, i32 noundef 1041, ptr noundef @__func__.i2d_ECPrivateKey)
  call void (i32, i32, ptr, ...) @ERR_set_error(i32 noundef 16, i32 noundef 524304, ptr noundef null)
  br label %112

46:                                               ; preds = %35
  %47 = load ptr, ptr %11, align 8, !tbaa !22
  %48 = getelementptr inbounds nuw %struct.ec_privatekey_st, ptr %47, i32 0, i32 1
  %49 = load ptr, ptr %48, align 8, !tbaa !94
  %50 = load ptr, ptr %7, align 8, !tbaa !26
  %51 = load i64, ptr %9, align 8, !tbaa !16
  %52 = trunc i64 %51 to i32
  call void @ASN1_STRING_set0(ptr noundef %49, ptr noundef %50, i32 noundef %52)
  store ptr null, ptr %7, align 8, !tbaa !26
  %53 = load ptr, ptr %3, align 8, !tbaa !81
  %54 = getelementptr inbounds nuw %struct.ec_key_st, ptr %53, i32 0, i32 6
  %55 = load i32, ptr %54, align 8, !tbaa !100
  %56 = and i32 %55, 1
  %57 = icmp ne i32 %56, 0
  br i1 %57, label %71, label %58

58:                                               ; preds = %46
  %59 = load ptr, ptr %3, align 8, !tbaa !81
  %60 = getelementptr inbounds nuw %struct.ec_key_st, ptr %59, i32 0, i32 3
  %61 = load ptr, ptr %60, align 8, !tbaa !85
  %62 = load ptr, ptr %11, align 8, !tbaa !22
  %63 = getelementptr inbounds nuw %struct.ec_privatekey_st, ptr %62, i32 0, i32 2
  %64 = load ptr, ptr %63, align 8, !tbaa !83
  %65 = call ptr @EC_GROUP_get_ecpkparameters(ptr noundef %61, ptr noundef %64)
  %66 = load ptr, ptr %11, align 8, !tbaa !22
  %67 = getelementptr inbounds nuw %struct.ec_privatekey_st, ptr %66, i32 0, i32 2
  store ptr %65, ptr %67, align 8, !tbaa !83
  %68 = icmp eq ptr %65, null
  br i1 %68, label %69, label %70

69:                                               ; preds = %58
  call void @ERR_new()
  call void @ERR_set_debug(ptr noundef @.str.2, i32 noundef 1052, ptr noundef @__func__.i2d_ECPrivateKey)
  call void (i32, i32, ptr, ...) @ERR_set_error(i32 noundef 16, i32 noundef 524304, ptr noundef null)
  br label %112

70:                                               ; preds = %58
  br label %71

71:                                               ; preds = %70, %46
  %72 = load ptr, ptr %3, align 8, !tbaa !81
  %73 = getelementptr inbounds nuw %struct.ec_key_st, ptr %72, i32 0, i32 6
  %74 = load i32, ptr %73, align 8, !tbaa !100
  %75 = and i32 %74, 2
  %76 = icmp ne i32 %75, 0
  br i1 %76, label %105, label %77

77:                                               ; preds = %71
  %78 = call ptr @ASN1_BIT_STRING_new()
  %79 = load ptr, ptr %11, align 8, !tbaa !22
  %80 = getelementptr inbounds nuw %struct.ec_privatekey_st, ptr %79, i32 0, i32 3
  store ptr %78, ptr %80, align 8, !tbaa !96
  %81 = load ptr, ptr %11, align 8, !tbaa !22
  %82 = getelementptr inbounds nuw %struct.ec_privatekey_st, ptr %81, i32 0, i32 3
  %83 = load ptr, ptr %82, align 8, !tbaa !96
  %84 = icmp eq ptr %83, null
  br i1 %84, label %85, label %86

85:                                               ; preds = %77
  call void @ERR_new()
  call void @ERR_set_debug(ptr noundef @.str.2, i32 noundef 1060, ptr noundef @__func__.i2d_ECPrivateKey)
  call void (i32, i32, ptr, ...) @ERR_set_error(i32 noundef 16, i32 noundef 524301, ptr noundef null)
  br label %112

86:                                               ; preds = %77
  %87 = load ptr, ptr %3, align 8, !tbaa !81
  %88 = load ptr, ptr %3, align 8, !tbaa !81
  %89 = getelementptr inbounds nuw %struct.ec_key_st, ptr %88, i32 0, i32 7
  %90 = load i32, ptr %89, align 4, !tbaa !102
  %91 = call i64 @EC_KEY_key2buf(ptr noundef %87, i32 noundef %90, ptr noundef %8, ptr noundef null)
  store i64 %91, ptr %10, align 8, !tbaa !16
  %92 = load i64, ptr %10, align 8, !tbaa !16
  %93 = icmp eq i64 %92, 0
  br i1 %93, label %94, label %95

94:                                               ; preds = %86
  call void @ERR_new()
  call void @ERR_set_debug(ptr noundef @.str.2, i32 noundef 1067, ptr noundef @__func__.i2d_ECPrivateKey)
  call void (i32, i32, ptr, ...) @ERR_set_error(i32 noundef 16, i32 noundef 524304, ptr noundef null)
  br label %112

95:                                               ; preds = %86
  %96 = load ptr, ptr %11, align 8, !tbaa !22
  %97 = getelementptr inbounds nuw %struct.ec_privatekey_st, ptr %96, i32 0, i32 3
  %98 = load ptr, ptr %97, align 8, !tbaa !96
  call void @ossl_asn1_string_set_bits_left(ptr noundef %98, i32 noundef 0)
  %99 = load ptr, ptr %11, align 8, !tbaa !22
  %100 = getelementptr inbounds nuw %struct.ec_privatekey_st, ptr %99, i32 0, i32 3
  %101 = load ptr, ptr %100, align 8, !tbaa !96
  %102 = load ptr, ptr %8, align 8, !tbaa !26
  %103 = load i64, ptr %10, align 8, !tbaa !16
  %104 = trunc i64 %103 to i32
  call void @ASN1_STRING_set0(ptr noundef %101, ptr noundef %102, i32 noundef %104)
  store ptr null, ptr %8, align 8, !tbaa !26
  br label %105

105:                                              ; preds = %95, %71
  %106 = load ptr, ptr %11, align 8, !tbaa !22
  %107 = load ptr, ptr %4, align 8, !tbaa !14
  %108 = call i32 @i2d_EC_PRIVATEKEY(ptr noundef %106, ptr noundef %107)
  store i32 %108, ptr %5, align 4, !tbaa !38
  %109 = icmp eq i32 %108, 0
  br i1 %109, label %110, label %111

110:                                              ; preds = %105
  call void @ERR_new()
  call void @ERR_set_debug(ptr noundef @.str.2, i32 noundef 1077, ptr noundef @__func__.i2d_ECPrivateKey)
  call void (i32, i32, ptr, ...) @ERR_set_error(i32 noundef 16, i32 noundef 524304, ptr noundef null)
  br label %112

111:                                              ; preds = %105
  store i32 1, ptr %6, align 4, !tbaa !38
  br label %112

112:                                              ; preds = %111, %110, %94, %85, %69, %45, %34, %30
  %113 = load ptr, ptr %7, align 8, !tbaa !26
  %114 = load i64, ptr %9, align 8, !tbaa !16
  call void @CRYPTO_clear_free(ptr noundef %113, i64 noundef %114, ptr noundef @.str.2, i32 noundef 1082)
  %115 = load ptr, ptr %8, align 8, !tbaa !26
  call void @CRYPTO_free(ptr noundef %115, ptr noundef @.str.2, i32 noundef 1083)
  %116 = load ptr, ptr %11, align 8, !tbaa !22
  call void @EC_PRIVATEKEY_free(ptr noundef %116)
  %117 = load i32, ptr %6, align 4, !tbaa !38
  %118 = icmp ne i32 %117, 0
  br i1 %118, label %119, label %121

119:                                              ; preds = %112
  %120 = load i32, ptr %5, align 4, !tbaa !38
  br label %122

121:                                              ; preds = %112
  br label %122

122:                                              ; preds = %121, %119
  %123 = phi i32 [ %120, %119 ], [ 0, %121 ]
  call void @llvm.lifetime.end.p0(i64 8, ptr %11) #4
  call void @llvm.lifetime.end.p0(i64 8, ptr %10) #4
  call void @llvm.lifetime.end.p0(i64 8, ptr %9) #4
  call void @llvm.lifetime.end.p0(i64 8, ptr %8) #4
  call void @llvm.lifetime.end.p0(i64 8, ptr %7) #4
  call void @llvm.lifetime.end.p0(i64 4, ptr %6) #4
  call void @llvm.lifetime.end.p0(i64 4, ptr %5) #4
  ret i32 %123
}