; Function Attrs: nounwind uwtable
define i32 @i2d_ECPrivateKey(ptr noundef %0, ptr noundef %1) local_unnamed_addr #0 {
  %3 = alloca ptr, align 8
  %4 = alloca ptr, align 8
  call void @llvm.lifetime.start.p0(i64 8, ptr nonnull %3) #8
  store ptr null, ptr %3, align 8, !tbaa !3
  call void @llvm.lifetime.start.p0(i64 8, ptr nonnull %4) #8
  store ptr null, ptr %4, align 8, !tbaa !3
  %5 = icmp eq ptr %0, null
  br i1 %5, label %18, label %6

6:                                                ; preds = %2
  %7 = getelementptr inbounds nuw i8, ptr %0, i64 24
  %8 = load ptr, ptr %7, align 8, !tbaa !57
  %9 = icmp eq ptr %8, null
  br i1 %9, label %18, label %10

10:                                               ; preds = %6
  %11 = getelementptr inbounds nuw i8, ptr %0, i64 48
  %12 = load i32, ptr %11, align 8, !tbaa !72
  %13 = and i32 %12, 2
  %.not = icmp eq i32 %13, 0
  br i1 %.not, label %14, label %19

14:                                               ; preds = %10
  %15 = getelementptr inbounds nuw i8, ptr %0, i64 32
  %16 = load ptr, ptr %15, align 8, !tbaa !67
  %17 = icmp eq ptr %16, null
  br i1 %17, label %18, label %19

18:                                               ; preds = %14, %6, %2
  tail call void @ERR_new() #8
  tail call void @ERR_set_debug(ptr noundef nonnull @.str.2, i32 noundef 1027, ptr noundef nonnull @__func__.i2d_ECPrivateKey) #8
  tail call void (i32, i32, ptr, ...) @ERR_set_error(i32 noundef 16, i32 noundef 786690, ptr noundef null) #8
  br label %66

19:                                               ; preds = %14, %10
  %20 = tail call ptr @ASN1_item_new(ptr noundef nonnull @EC_PRIVATEKEY_it.local_it) #8
  %21 = icmp eq ptr %20, null
  br i1 %21, label %22, label %23

22:                                               ; preds = %19
  tail call void @ERR_new() #8
  tail call void @ERR_set_debug(ptr noundef nonnull @.str.2, i32 noundef 1032, ptr noundef nonnull @__func__.i2d_ECPrivateKey) #8
  tail call void (i32, i32, ptr, ...) @ERR_set_error(i32 noundef 16, i32 noundef 524304, ptr noundef null) #8
  br label %66

23:                                               ; preds = %19
  %24 = getelementptr inbounds nuw i8, ptr %0, i64 16
  %25 = load i32, ptr %24, align 8, !tbaa !65
  store i32 %25, ptr %20, align 8, !tbaa !64
  %26 = call i64 @EC_KEY_priv2buf(ptr noundef nonnull %0, ptr noundef nonnull %3) #8
  %27 = icmp eq i64 %26, 0
  br i1 %27, label %28, label %29

28:                                               ; preds = %23
  call void @ERR_new() #8
  call void @ERR_set_debug(ptr noundef nonnull @.str.2, i32 noundef 1041, ptr noundef nonnull @__func__.i2d_ECPrivateKey) #8
  call void (i32, i32, ptr, ...) @ERR_set_error(i32 noundef 16, i32 noundef 524304, ptr noundef null) #8
  br label %66

29:                                               ; preds = %23
  %30 = getelementptr inbounds nuw i8, ptr %20, i64 8
  %31 = load ptr, ptr %30, align 8, !tbaa !66
  %32 = load ptr, ptr %3, align 8, !tbaa !3
  %33 = trunc i64 %26 to i32
  call void @ASN1_STRING_set0(ptr noundef %31, ptr noundef %32, i32 noundef %33) #8
  store ptr null, ptr %3, align 8, !tbaa !3
  %34 = load i32, ptr %11, align 8, !tbaa !72
  %35 = and i32 %34, 1
  %.not38 = icmp eq i32 %35, 0
  br i1 %.not38, label %36, label %43

36:                                               ; preds = %29
  %37 = load ptr, ptr %7, align 8, !tbaa !57
  %38 = getelementptr inbounds nuw i8, ptr %20, i64 16
  %39 = load ptr, ptr %38, align 8, !tbaa !54
  %40 = call ptr @EC_GROUP_get_ecpkparameters(ptr noundef %37, ptr noundef %39)
  store ptr %40, ptr %38, align 8, !tbaa !54
  %41 = icmp eq ptr %40, null
  br i1 %41, label %42, label %._crit_edge

._crit_edge:                                      ; preds = %36
  %.pre = load i32, ptr %11, align 8, !tbaa !72
  br label %43

42:                                               ; preds = %36
  call void @ERR_new() #8
  call void @ERR_set_debug(ptr noundef nonnull @.str.2, i32 noundef 1052, ptr noundef nonnull @__func__.i2d_ECPrivateKey) #8
  call void (i32, i32, ptr, ...) @ERR_set_error(i32 noundef 16, i32 noundef 524304, ptr noundef null) #8
  br label %66

43:                                               ; preds = %._crit_edge, %29
  %44 = phi i32 [ %.pre, %._crit_edge ], [ %34, %29 ]
  %45 = and i32 %44, 2
  %.not39 = icmp eq i32 %45, 0
  br i1 %.not39, label %46, label %62

46:                                               ; preds = %43
  %47 = call ptr @ASN1_BIT_STRING_new() #8
  %48 = getelementptr inbounds nuw i8, ptr %20, i64 24
  store ptr %47, ptr %48, align 8, !tbaa !68
  %49 = icmp eq ptr %47, null
  br i1 %49, label %50, label %51

50:                                               ; preds = %46
  call void @ERR_new() #8
  call void @ERR_set_debug(ptr noundef nonnull @.str.2, i32 noundef 1060, ptr noundef nonnull @__func__.i2d_ECPrivateKey) #8
  call void (i32, i32, ptr, ...) @ERR_set_error(i32 noundef 16, i32 noundef 524301, ptr noundef null) #8
  br label %66

51:                                               ; preds = %46
  %52 = getelementptr inbounds nuw i8, ptr %0, i64 52
  %53 = load i32, ptr %52, align 4, !tbaa !74
  %54 = call i64 @EC_KEY_key2buf(ptr noundef nonnull %0, i32 noundef %53, ptr noundef nonnull %4, ptr noundef null) #8
  %55 = icmp eq i64 %54, 0
  br i1 %55, label %56, label %57

56:                                               ; preds = %51
  call void @ERR_new() #8
  call void @ERR_set_debug(ptr noundef nonnull @.str.2, i32 noundef 1067, ptr noundef nonnull @__func__.i2d_ECPrivateKey) #8
  call void (i32, i32, ptr, ...) @ERR_set_error(i32 noundef 16, i32 noundef 524304, ptr noundef null) #8
  br label %66

57:                                               ; preds = %51
  %58 = load ptr, ptr %48, align 8, !tbaa !68
  call void @ossl_asn1_string_set_bits_left(ptr noundef %58, i32 noundef 0) #8
  %59 = load ptr, ptr %48, align 8, !tbaa !68
  %60 = load ptr, ptr %4, align 8, !tbaa !3
  %61 = trunc i64 %54 to i32
  call void @ASN1_STRING_set0(ptr noundef %59, ptr noundef %60, i32 noundef %61) #8
  store ptr null, ptr %4, align 8, !tbaa !3
  br label %62

62:                                               ; preds = %57, %43
  %63 = call i32 @ASN1_item_i2d(ptr noundef nonnull %20, ptr noundef %1, ptr noundef nonnull @EC_PRIVATEKEY_it.local_it) #8
  %64 = icmp eq i32 %63, 0
  br i1 %64, label %65, label %66

65:                                               ; preds = %62
  call void @ERR_new() #8
  call void @ERR_set_debug(ptr noundef nonnull @.str.2, i32 noundef 1077, ptr noundef nonnull @__func__.i2d_ECPrivateKey) #8
  call void (i32, i32, ptr, ...) @ERR_set_error(i32 noundef 16, i32 noundef 524304, ptr noundef null) #8
  br label %66

66:                                               ; preds = %62, %65, %56, %50, %42, %28, %22, %18
  %.not40 = phi i32 [ 0, %18 ], [ 0, %22 ], [ 0, %28 ], [ 0, %65 ], [ 0, %50 ], [ 0, %56 ], [ 0, %42 ], [ %63, %62 ]
  %.028 = phi i64 [ 0, %18 ], [ 0, %22 ], [ 0, %28 ], [ %26, %65 ], [ %26, %50 ], [ %26, %56 ], [ %26, %42 ], [ %26, %62 ]
  %.0 = phi ptr [ null, %18 ], [ null, %22 ], [ %20, %28 ], [ %20, %65 ], [ %20, %50 ], [ %20, %56 ], [ %20, %42 ], [ %20, %62 ]
  %67 = load ptr, ptr %3, align 8, !tbaa !3
  call void @CRYPTO_clear_free(ptr noundef %67, i64 noundef %.028, ptr noundef nonnull @.str.2, i32 noundef 1082) #8
  %68 = load ptr, ptr %4, align 8, !tbaa !3
  call void @CRYPTO_free(ptr noundef %68, ptr noundef nonnull @.str.2, i32 noundef 1083) #8
  call void @ASN1_item_free(ptr noundef %.0, ptr noundef nonnull @EC_PRIVATEKEY_it.local_it) #8
  call void @llvm.lifetime.end.p0(i64 8, ptr nonnull %4) #8
  call void @llvm.lifetime.end.p0(i64 8, ptr nonnull %3) #8
  ret i32 %.not40
}